; Function Attrs: nounwind uwtable
define ptr @l___private_Lake_DSL_Require_0__Lake_DSL_quoteOptTerm___rarg___lambda__5(ptr noundef %0, ptr noundef %1, ptr noundef %2, ptr noundef %3, ptr noundef %4) #0 {
  %6 = getelementptr inbounds nuw i8, ptr %0, i64 8
  %7 = load ptr, ptr %6, align 8, !tbaa !4
  %8 = ptrtoint ptr %7 to i64
  %9 = and i64 %8, 1
  %.not = icmp eq i64 %9, 0
  br i1 %.not, label %10, label %lean_inc.exit31

10:                                               ; preds = %5
  %.val.i = load i32, ptr %7, align 4, !tbaa !8
  %11 = icmp sgt i32 %.val.i, 0
  br i1 %11, label %12, label %14, !prof !11

12:                                               ; preds = %10
  %13 = add nuw i32 %.val.i, 1
  store i32 %13, ptr %7, align 4, !tbaa !8
  br label %lean_inc.exit31

14:                                               ; preds = %10
  %.not.i35 = icmp eq i32 %.val.i, 0
  br i1 %.not.i35, label %lean_inc.exit31, label %15

15:                                               ; preds = %14
  tail call void @lean_inc_ref_cold(ptr noundef nonnull %7) #5
  br label %lean_inc.exit31

lean_inc.exit31:                                  ; preds = %15, %14, %12, %5
  %16 = ptrtoint ptr %0 to i64
  %17 = and i64 %16, 1
  %.not45 = icmp eq i64 %17, 0
  br i1 %.not45, label %18, label %lean_dec.exit32

18:                                               ; preds = %lean_inc.exit31
  %19 = load i32, ptr %0, align 4, !tbaa !8
  %20 = icmp sgt i32 %19, 1
  br i1 %20, label %21, label %23, !prof !11

21:                                               ; preds = %18
  %22 = add nsw i32 %19, -1
  store i32 %22, ptr %0, align 4, !tbaa !8
  br label %lean_dec.exit32

23:                                               ; preds = %18
  %.not.i = icmp eq i32 %19, 0
  br i1 %.not.i, label %lean_dec.exit32, label %24

24:                                               ; preds = %23
  tail call void @lean_dec_ref_cold(ptr noundef nonnull %0) #5
  br label %lean_dec.exit32

lean_dec.exit32:                                  ; preds = %24, %23, %21, %lean_inc.exit31
  %25 = getelementptr inbounds nuw i8, ptr %7, i64 16
  %26 = load ptr, ptr %25, align 8, !tbaa !4
  %27 = ptrtoint ptr %26 to i64
  %28 = and i64 %27, 1
  %.not46 = icmp eq i64 %28, 0
  br i1 %.not46, label %29, label %lean_inc.exit30

29:                                               ; preds = %lean_dec.exit32
  %.val.i36 = load i32, ptr %26, align 4, !tbaa !8
  %30 = icmp sgt i32 %.val.i36, 0
  br i1 %30, label %31, label %33, !prof !11

31:                                               ; preds = %29
  %32 = add nuw i32 %.val.i36, 1
  store i32 %32, ptr %26, align 4, !tbaa !8
  br label %lean_inc.exit30

33:                                               ; preds = %29
  %.not.i37 = icmp eq i32 %.val.i36, 0
  br i1 %.not.i37, label %lean_inc.exit30, label %34

34:                                               ; preds = %33
  tail call void @lean_inc_ref_cold(ptr noundef nonnull %26) #5
  br label %lean_inc.exit30

lean_inc.exit30:                                  ; preds = %34, %33, %31, %lean_dec.exit32
  br i1 %.not, label %35, label %lean_dec.exit

35:                                               ; preds = %lean_inc.exit30
  %36 = load i32, ptr %7, align 4, !tbaa !8
  %37 = icmp sgt i32 %36, 1
  br i1 %37, label %38, label %40, !prof !11

38:                                               ; preds = %35
  %39 = add nsw i32 %36, -1
  store i32 %39, ptr %7, align 4, !tbaa !8
  br label %lean_dec.exit

40:                                               ; preds = %35
  %.not.i33 = icmp eq i32 %36, 0
  br i1 %.not.i33, label %lean_dec.exit, label %41

41:                                               ; preds = %40
  tail call void @lean_dec_ref_cold(ptr noundef nonnull %7) #5
  br label %lean_dec.exit

lean_dec.exit:                                    ; preds = %41, %40, %38, %lean_inc.exit30
  %42 = load ptr, ptr @l___private_Lake_DSL_Require_0__Lake_DSL_quoteOptTerm___rarg___lambda__5___closed__8, align 8, !tbaa !4
  %43 = tail call ptr @l_Lean_addMacroScope(ptr noundef %4, ptr noundef %42, ptr noundef %1) #5
  %44 = load ptr, ptr @l___private_Lake_DSL_Require_0__Lake_DSL_quoteOptTerm___rarg___lambda__5___closed__7, align 8, !tbaa !4
  %45 = load ptr, ptr @l___private_Lake_DSL_Require_0__Lake_DSL_quoteOptTerm___rarg___lambda__5___closed__11, align 8, !tbaa !4
  %46 = ptrtoint ptr %2 to i64
  %47 = and i64 %46, 1
  %.not47 = icmp eq i64 %47, 0
  br i1 %.not47, label %48, label %lean_inc.exit29

48:                                               ; preds = %lean_dec.exit
  %.val.i39 = load i32, ptr %2, align 4, !tbaa !8
  %49 = icmp sgt i32 %.val.i39, 0
  br i1 %49, label %50, label %52, !prof !11

50:                                               ; preds = %48
  %51 = add nuw i32 %.val.i39, 1
  store i32 %51, ptr %2, align 4, !tbaa !8
  br label %lean_inc.exit29

52:                                               ; preds = %48
  %.not.i40 = icmp eq i32 %.val.i39, 0
  br i1 %.not.i40, label %lean_inc.exit29, label %53

53:                                               ; preds = %52
  tail call void @lean_inc_ref_cold(ptr noundef nonnull %2) #5
  br label %lean_inc.exit29

lean_inc.exit29:                                  ; preds = %53, %52, %50, %lean_dec.exit
  tail call void @lean_inc_heartbeat() #5
  %54 = tail call noalias ptr @mi_malloc_small(i64 noundef 40) #5
  %55 = icmp eq ptr %54, null
  br i1 %55, label %56, label %lean_alloc_ctor.exit

56:                                               ; preds = %lean_inc.exit29
  tail call void @lean_internal_panic_out_of_memory() #6
  unreachable

lean_alloc_ctor.exit:                             ; preds = %lean_inc.exit29
  %57 = getelementptr inbounds nuw i8, ptr %54, i64 4
  store i32 1, ptr %54, align 4, !tbaa !8
  store i32 50593832, ptr %57, align 4
  %58 = getelementptr inbounds nuw i8, ptr %54, i64 8
  store ptr %2, ptr %58, align 8, !tbaa !4
  %59 = getelementptr inbounds nuw i8, ptr %54, i64 16
  store ptr %44, ptr %59, align 8, !tbaa !4
  %60 = getelementptr inbounds nuw i8, ptr %54, i64 24
  store ptr %43, ptr %60, align 8, !tbaa !4
  %61 = getelementptr inbounds nuw i8, ptr %54, i64 32
  store ptr %45, ptr %61, align 8, !tbaa !4
  %62 = load ptr, ptr @l___private_Lake_DSL_Require_0__Lake_DSL_quoteOptTerm___rarg___lambda__5___closed__13, align 8, !tbaa !4
  br i1 %.not47, label %63, label %lean_inc.exit

63:                                               ; preds = %lean_alloc_ctor.exit
  %.val.i42 = load i32, ptr %2, align 4, !tbaa !8
  %64 = icmp sgt i32 %.val.i42, 0
  br i1 %64, label %65, label %67, !prof !11

65:                                               ; preds = %63
  %66 = add nuw i32 %.val.i42, 1
  store i32 %66, ptr %2, align 4, !tbaa !8
  br label %lean_inc.exit

67:                                               ; preds = %63
  %.not.i43 = icmp eq i32 %.val.i42, 0
  br i1 %.not.i43, label %lean_inc.exit, label %68

68:                                               ; preds = %67
  tail call void @lean_inc_ref_cold(ptr noundef nonnull %2) #5
  br label %lean_inc.exit

lean_inc.exit:                                    ; preds = %68, %67, %65, %lean_alloc_ctor.exit
  %69 = tail call ptr @l_Lean_Syntax_node1(ptr noundef %2, ptr noundef %62, ptr noundef %3) #5
  %70 = load ptr, ptr @l___private_Lake_DSL_Require_0__Lake_DSL_quoteOptTerm___rarg___lambda__5___closed__5, align 8, !tbaa !4
  %71 = tail call ptr @l_Lean_Syntax_node2(ptr noundef %2, ptr noundef %70, ptr noundef nonnull %54, ptr noundef %69) #5
  %72 = tail call ptr @lean_apply_2(ptr noundef %26, ptr noundef nonnull inttoptr (i64 1 to ptr), ptr noundef %71) #5
  ret ptr %72
}